target datalayout = "e-m:e-p270:32:32-p271:32:32-p272:64:64-i64:64-i128:128-f80:128-n8:16:32:64-S128"
target triple = "x86_64-pc-linux-gnu"

%"class.icu_77::UnicodeString" = type { %"class.icu_77::Replaceable", %"union.icu_77::UnicodeString::StackBufferOrFields" }
%"class.icu_77::Replaceable" = type { %"class.icu_77::UObject" }
%"class.icu_77::UObject" = type { ptr }
%"union.icu_77::UnicodeString::StackBufferOrFields" = type { %struct.anon.0, [32 x i8] }
%struct.anon.0 = type { i16, i32, i32, ptr }
%"class.icu_77::NFRuleSet" = type <{ [8 x i8], %"class.icu_77::UnicodeString", %"class.icu_77::NFRuleList", [6 x ptr], ptr, %"class.icu_77::NFRuleList", i8, i8, i8, [5 x i8] }>
%"class.icu_77::NFRuleList" = type { ptr, i32, i32 }
%"class.icu_77::NFRule" = type { i64, i32, i16, i16, %"class.icu_77::UnicodeString", ptr, ptr, ptr, ptr }

; Function Attrs: mustprogress nounwind uwtable
define linkonce_odr noundef i64 @_ZNK6icu_776NFRule12getBaseValueEv(ptr noundef nonnull align 8 dereferenceable(112) %0) #6 comdat align 2 {
  %2 = alloca ptr, align 8
  store ptr %0, ptr %2, align 8, !tbaa !26
  %3 = load ptr, ptr %2, align 8
  %4 = getelementptr inbounds nuw %"class.icu_77::NFRule", ptr %3, i32 0, i32 0
  %5 = load i64, ptr %4, align 8, !tbaa !57
  ret i64 %5
}

; Function Attrs: mustprogress nounwind uwtable
define linkonce_odr noundef ptr @_ZNK6icu_7710NFRuleListixEj(ptr noundef nonnull align 8 dereferenceable(16) %0, i32 noundef %1) #6 comdat align 2 {
  %3 = alloca ptr, align 8
  %4 = alloca i32, align 4
  store ptr %0, ptr %3, align 8, !tbaa !36
  store i32 %1, ptr %4, align 4, !tbaa !12
  %5 = load ptr, ptr %3, align 8
  %6 = getelementptr inbounds nuw %"class.icu_77::NFRuleList", ptr %5, i32 0, i32 0
  %7 = load ptr, ptr %6, align 8, !tbaa !38
  %8 = icmp ne ptr %7, null
  br i1 %8, label %9, label %16

9:                                                ; preds = %2
  %10 = getelementptr inbounds nuw %"class.icu_77::NFRuleList", ptr %5, i32 0, i32 0
  %11 = load ptr, ptr %10, align 8, !tbaa !38
  %12 = load i32, ptr %4, align 4, !tbaa !12
  %13 = zext i32 %12 to i64
  %14 = getelementptr inbounds nuw ptr, ptr %11, i64 %13
  %15 = load ptr, ptr %14, align 8, !tbaa !26
  br label %17

16:                                               ; preds = %2
  br label %17

17:                                               ; preds = %16, %9
  %18 = phi ptr [ %15, %9 ], [ null, %16 ]
  ret ptr %18
}

; Function Attrs: mustprogress nounwind uwtable
define linkonce_odr noundef i32 @_ZNK6icu_7710NFRuleList4sizeEv(ptr noundef nonnull align 8 dereferenceable(16) %0) #6 comdat align 2 {
  %2 = alloca ptr, align 8
  store ptr %0, ptr %2, align 8, !tbaa !36
  %3 = load ptr, ptr %2, align 8
  %4 = getelementptr inbounds nuw %"class.icu_77::NFRuleList", ptr %3, i32 0, i32 1
  %5 = load i32, ptr %4, align 8, !tbaa !39
  ret i32 %5
}

; Function Attrs: mustprogress uwtable
define noundef ptr @_ZNK6icu_779NFRuleSet14findNormalRuleEl(ptr noundef nonnull align 8 dereferenceable(163) %0, i64 noundef %1) #0 align 2 {
  %3 = alloca ptr, align 8
  %4 = alloca ptr, align 8
  %5 = alloca i64, align 8
  %6 = alloca i32, align 4
  %7 = alloca i32, align 4
  %8 = alloca i32, align 4
  %9 = alloca i32, align 4
  %10 = alloca ptr, align 8
  store ptr %0, ptr %4, align 8, !tbaa !3
  store i64 %1, ptr %5, align 8, !tbaa !52
  %11 = load ptr, ptr %4, align 8
  %12 = getelementptr inbounds nuw %"class.icu_77::NFRuleSet", ptr %11, i32 0, i32 6
  %13 = load i8, ptr %12, align 8, !tbaa !23
  %14 = icmp ne i8 %13, 0
  br i1 %14, label %15, label %19

15:                                               ; preds = %2
  %16 = load i64, ptr %5, align 8, !tbaa !52
  %17 = sitofp i64 %16 to double
  %18 = call noundef ptr @_ZNK6icu_779NFRuleSet23findFractionRuleSetRuleEd(ptr noundef nonnull align 8 dereferenceable(163) %11, double noundef %17)
  store ptr %18, ptr %3, align 8
  br label %108

19:                                               ; preds = %2
  %20 = load i64, ptr %5, align 8, !tbaa !52
  %21 = icmp slt i64 %20, 0
  br i1 %21, label %22, label %35

22:                                               ; preds = %19
  %23 = getelementptr inbounds nuw %"class.icu_77::NFRuleSet", ptr %11, i32 0, i32 3
  %24 = getelementptr inbounds nuw [6 x ptr], ptr %23, i64 0, i64 0
  %25 = load ptr, ptr %24, align 8, !tbaa !26
  %26 = icmp ne ptr %25, null
  br i1 %26, label %27, label %31

27:                                               ; preds = %22
  %28 = getelementptr inbounds nuw %"class.icu_77::NFRuleSet", ptr %11, i32 0, i32 3
  %29 = getelementptr inbounds nuw [6 x ptr], ptr %28, i64 0, i64 0
  %30 = load ptr, ptr %29, align 8, !tbaa !26
  store ptr %30, ptr %3, align 8
  br label %108

31:                                               ; preds = %22
  %32 = load i64, ptr %5, align 8, !tbaa !52
  %33 = sub nsw i64 0, %32
  store i64 %33, ptr %5, align 8, !tbaa !52
  br label %34

34:                                               ; preds = %31
  br label %35

35:                                               ; preds = %34, %19
  call void @llvm.lifetime.start.p0(i64 4, ptr %6) #12
  %36 = getelementptr inbounds nuw %"class.icu_77::NFRuleSet", ptr %11, i32 0, i32 2
  %37 = call noundef i32 @_ZNK6icu_7710NFRuleList4sizeEv(ptr noundef nonnull align 8 dereferenceable(16) %36)
  store i32 %37, ptr %6, align 4, !tbaa !12
  %38 = load i32, ptr %6, align 4, !tbaa !12
  %39 = icmp sgt i32 %38, 0
  br i1 %39, label %40, label %103

40:                                               ; preds = %35
  call void @llvm.lifetime.start.p0(i64 4, ptr %7) #12
  store i32 0, ptr %7, align 4, !tbaa !12
  br label %41

41:                                               ; preds = %76, %40
  %42 = load i32, ptr %7, align 4, !tbaa !12
  %43 = load i32, ptr %6, align 4, !tbaa !12
  %44 = icmp slt i32 %42, %43
  br i1 %44, label %45, label %77

45:                                               ; preds = %41
  call void @llvm.lifetime.start.p0(i64 4, ptr %8) #12
  %46 = load i32, ptr %7, align 4, !tbaa !12
  %47 = load i32, ptr %6, align 4, !tbaa !12
  %48 = add nsw i32 %46, %47
  %49 = sdiv i32 %48, 2
  store i32 %49, ptr %8, align 4, !tbaa !12
  %50 = getelementptr inbounds nuw %"class.icu_77::NFRuleSet", ptr %11, i32 0, i32 2
  %51 = load i32, ptr %8, align 4, !tbaa !12
  %52 = call noundef ptr @_ZNK6icu_7710NFRuleListixEj(ptr noundef nonnull align 8 dereferenceable(16) %50, i32 noundef %51)
  %53 = call noundef i64 @_ZNK6icu_776NFRule12getBaseValueEv(ptr noundef nonnull align 8 dereferenceable(112) %52)
  %54 = load i64, ptr %5, align 8, !tbaa !52
  %55 = icmp eq i64 %53, %54
  br i1 %55, label %56, label %60

56:                                               ; preds = %45
  %57 = getelementptr inbounds nuw %"class.icu_77::NFRuleSet", ptr %11, i32 0, i32 2
  %58 = load i32, ptr %8, align 4, !tbaa !12
  %59 = call noundef ptr @_ZNK6icu_7710NFRuleListixEj(ptr noundef nonnull align 8 dereferenceable(16) %57, i32 noundef %58)
  store ptr %59, ptr %3, align 8
  store i32 1, ptr %9, align 4
  br label %74

60:                                               ; preds = %45
  %61 = getelementptr inbounds nuw %"class.icu_77::NFRuleSet", ptr %11, i32 0, i32 2
  %62 = load i32, ptr %8, align 4, !tbaa !12
  %63 = call noundef ptr @_ZNK6icu_7710NFRuleListixEj(ptr noundef nonnull align 8 dereferenceable(16) %61, i32 noundef %62)
  %64 = call noundef i64 @_ZNK6icu_776NFRule12getBaseValueEv(ptr noundef nonnull align 8 dereferenceable(112) %63)
  %65 = load i64, ptr %5, align 8, !tbaa !52
  %66 = icmp sgt i64 %64, %65
  br i1 %66, label %67, label %69

67:                                               ; preds = %60
  %68 = load i32, ptr %8, align 4, !tbaa !12
  store i32 %68, ptr %6, align 4, !tbaa !12
  br label %72

69:                                               ; preds = %60
  %70 = load i32, ptr %8, align 4, !tbaa !12
  %71 = add nsw i32 %70, 1
  store i32 %71, ptr %7, align 4, !tbaa !12
  br label %72

72:                                               ; preds = %69, %67
  br label %73

73:                                               ; preds = %72
  store i32 0, ptr %9, align 4
  br label %74

74:                                               ; preds = %73, %56
  call void @llvm.lifetime.end.p0(i64 4, ptr %8) #12
  %75 = load i32, ptr %9, align 4
  switch i32 %75, label %102 [
    i32 0, label %76
  ]

76:                                               ; preds = %74
  br label %41, !llvm.loop !74

77:                                               ; preds = %41
  %78 = load i32, ptr %6, align 4, !tbaa !12
  %79 = icmp eq i32 %78, 0
  br i1 %79, label %80, label %81

80:                                               ; preds = %77
  store ptr null, ptr %3, align 8
  store i32 1, ptr %9, align 4
  br label %102

81:                                               ; preds = %77
  call void @llvm.lifetime.start.p0(i64 8, ptr %10) #12
  %82 = getelementptr inbounds nuw %"class.icu_77::NFRuleSet", ptr %11, i32 0, i32 2
  %83 = load i32, ptr %6, align 4, !tbaa !12
  %84 = sub nsw i32 %83, 1
  %85 = call noundef ptr @_ZNK6icu_7710NFRuleListixEj(ptr noundef nonnull align 8 dereferenceable(16) %82, i32 noundef %84)
  store ptr %85, ptr %10, align 8, !tbaa !26
  %86 = load ptr, ptr %10, align 8, !tbaa !26
  %87 = load i64, ptr %5, align 8, !tbaa !52
  %88 = call noundef signext i8 @_ZNK6icu_776NFRule14shouldRollBackEl(ptr noundef nonnull align 8 dereferenceable(112) %86, i64 noundef %87)
  %89 = icmp ne i8 %88, 0
  br i1 %89, label %90, label %99

90:                                               ; preds = %81
  %91 = load i32, ptr %6, align 4, !tbaa !12
  %92 = icmp eq i32 %91, 1
  br i1 %92, label %93, label %94

93:                                               ; preds = %90
  store ptr null, ptr %3, align 8
  store i32 1, ptr %9, align 4
  br label %101

94:                                               ; preds = %90
  %95 = getelementptr inbounds nuw %"class.icu_77::NFRuleSet", ptr %11, i32 0, i32 2
  %96 = load i32, ptr %6, align 4, !tbaa !12
  %97 = sub nsw i32 %96, 2
  %98 = call noundef ptr @_ZNK6icu_7710NFRuleListixEj(ptr noundef nonnull align 8 dereferenceable(16) %95, i32 noundef %97)
  store ptr %98, ptr %10, align 8, !tbaa !26
  br label %99

99:                                               ; preds = %94, %81
  %100 = load ptr, ptr %10, align 8, !tbaa !26
  store ptr %100, ptr %3, align 8
  store i32 1, ptr %9, align 4
  br label %101

101:                                              ; preds = %99, %93
  call void @llvm.lifetime.end.p0(i64 8, ptr %10) #12
  br label %102

102:                                              ; preds = %101, %80, %74
  call void @llvm.lifetime.end.p0(i64 4, ptr %7) #12
  br label %107

103:                                              ; preds = %35
  %104 = getelementptr inbounds nuw %"class.icu_77::NFRuleSet", ptr %11, i32 0, i32 3
  %105 = getelementptr inbounds nuw [6 x ptr], ptr %104, i64 0, i64 3
  %106 = load ptr, ptr %105, align 8, !tbaa !26
  store ptr %106, ptr %3, align 8
  store i32 1, ptr %9, align 4
  br label %107

107:                                              ; preds = %103, %102
  call void @llvm.lifetime.end.p0(i64 4, ptr %6) #12
  br label %108

108:                                              ; preds = %107, %27, %15
  %109 = load ptr, ptr %3, align 8
  ret ptr %109
}