; Function Attrs: mustprogress uwtable
define noundef ptr @_ZNK6icu_779NFRuleSet14findNormalRuleEl(ptr noundef nonnull readonly align 8 captures(none) dereferenceable(163) %0, i64 noundef %1) local_unnamed_addr #0 align 2 {
  %3 = getelementptr inbounds nuw i8, ptr %0, i64 160
  %4 = load i8, ptr %3, align 8, !tbaa !22
  %.not = icmp eq i8 %4, 0
  br i1 %.not, label %8, label %5

5:                                                ; preds = %2
  %6 = sitofp i64 %1 to double
  %7 = tail call noundef ptr @_ZNK6icu_779NFRuleSet23findFractionRuleSetRuleEd(ptr noundef nonnull align 8 dereferenceable(163) %0, double noundef %6)
  br label %_ZNK6icu_7710NFRuleListixEj.exit47

8:                                                ; preds = %2
  %9 = icmp slt i64 %1, 0
  br i1 %9, label %10, label %15

10:                                               ; preds = %8
  %11 = getelementptr inbounds nuw i8, ptr %0, i64 88
  %12 = load ptr, ptr %11, align 8, !tbaa !25
  %.not37 = icmp eq ptr %12, null
  br i1 %.not37, label %13, label %_ZNK6icu_7710NFRuleListixEj.exit47

13:                                               ; preds = %10
  %14 = sub nsw i64 0, %1
  br label %15

15:                                               ; preds = %13, %8
  %.032 = phi i64 [ %14, %13 ], [ %1, %8 ]
  %16 = getelementptr inbounds nuw i8, ptr %0, i64 72
  %17 = getelementptr inbounds nuw i8, ptr %0, i64 80
  %18 = load i32, ptr %17, align 8, !tbaa !20
  %19 = icmp sgt i32 %18, 0
  br i1 %19, label %.preheader, label %46

.preheader:                                       ; preds = %15
  %20 = load ptr, ptr %16, align 8, !tbaa !19, !nonnull !40, !noundef !40
  br label %_ZNK6icu_7710NFRuleListixEj.exit.thread

_ZNK6icu_7710NFRuleListixEj.exit.thread:          ; preds = %.preheader, %_ZNK6icu_7710NFRuleListixEj.exit41
  %.02666 = phi i32 [ 0, %.preheader ], [ %.228, %_ZNK6icu_7710NFRuleListixEj.exit41 ]
  %.02965 = phi i32 [ %18, %.preheader ], [ %.231, %_ZNK6icu_7710NFRuleListixEj.exit41 ]
  %21 = add nuw nsw i32 %.02666, %.02965
  %22 = lshr i32 %21, 1
  %23 = zext nneg i32 %22 to i64
  %24 = getelementptr inbounds nuw ptr, ptr %20, i64 %23
  %25 = load ptr, ptr %24, align 8, !tbaa !25
  %26 = load i64, ptr %25, align 8, !tbaa !41
  %.not3948 = icmp eq i64 %26, %.032
  br i1 %.not3948, label %_ZNK6icu_7710NFRuleListixEj.exit47, label %_ZNK6icu_7710NFRuleListixEj.exit41

_ZNK6icu_7710NFRuleListixEj.exit41:               ; preds = %_ZNK6icu_7710NFRuleListixEj.exit.thread
  %27 = icmp sgt i64 %26, %.032
  %28 = add nuw nsw i32 %22, 1
  %.231 = select i1 %27, i32 %22, i32 %.02965
  %.228 = select i1 %27, i32 %.02666, i32 %28
  %29 = icmp slt i32 %.228, %.231
  br i1 %29, label %_ZNK6icu_7710NFRuleListixEj.exit.thread, label %30

30:                                               ; preds = %_ZNK6icu_7710NFRuleListixEj.exit41
  %31 = icmp eq i32 %.231, 0
  br i1 %31, label %_ZNK6icu_7710NFRuleListixEj.exit47, label %_ZNK6icu_7710NFRuleListixEj.exit45

_ZNK6icu_7710NFRuleListixEj.exit45:               ; preds = %30
  %32 = add nsw i32 %.231, -1
  %33 = zext i32 %32 to i64
  %34 = getelementptr inbounds nuw ptr, ptr %20, i64 %33
  %35 = load ptr, ptr %34, align 8, !tbaa !25
  %36 = tail call noundef signext i8 @_ZNK6icu_776NFRule14shouldRollBackEl(ptr noundef nonnull align 8 dereferenceable(112) %35, i64 noundef %.032)
  %.not38 = icmp eq i8 %36, 0
  br i1 %.not38, label %_ZNK6icu_7710NFRuleListixEj.exit47, label %37

37:                                               ; preds = %_ZNK6icu_7710NFRuleListixEj.exit45
  %38 = icmp eq i32 %.231, 1
  br i1 %38, label %_ZNK6icu_7710NFRuleListixEj.exit47, label %39

39:                                               ; preds = %37
  %40 = load ptr, ptr %16, align 8, !tbaa !19
  %.not.i46 = icmp eq ptr %40, null
  br i1 %.not.i46, label %_ZNK6icu_7710NFRuleListixEj.exit47, label %41

41:                                               ; preds = %39
  %42 = add nsw i32 %.231, -2
  %43 = zext i32 %42 to i64
  %44 = getelementptr inbounds nuw ptr, ptr %40, i64 %43
  %45 = load ptr, ptr %44, align 8, !tbaa !25
  br label %_ZNK6icu_7710NFRuleListixEj.exit47

46:                                               ; preds = %15
  %47 = getelementptr inbounds nuw i8, ptr %0, i64 112
  %48 = load ptr, ptr %47, align 8, !tbaa !25
  br label %_ZNK6icu_7710NFRuleListixEj.exit47

_ZNK6icu_7710NFRuleListixEj.exit47:               ; preds = %_ZNK6icu_7710NFRuleListixEj.exit.thread, %41, %39, %46, %37, %_ZNK6icu_7710NFRuleListixEj.exit45, %30, %10, %5
  %.025 = phi ptr [ %7, %5 ], [ %12, %10 ], [ %48, %46 ], [ null, %30 ], [ null, %37 ], [ %35, %_ZNK6icu_7710NFRuleListixEj.exit45 ], [ %45, %41 ], [ null, %39 ], [ %25, %_ZNK6icu_7710NFRuleListixEj.exit.thread ]
  ret ptr %.025
}